target datalayout = "e-m:e-p270:32:32-p271:32:32-p272:64:64-i64:64-i128:128-f80:128-n8:16:32:64-S128"
target triple = "x86_64-pc-linux-gnu"

%struct.py_hashentry_t = type { ptr, ptr, ptr, i32, i32, ptr, ptr }

; Function Attrs: nounwind uwtable
define internal void @py_hashentry_t_destroy_value(ptr noundef %0) #0 {
  %2 = alloca ptr, align 8
  %3 = alloca ptr, align 8
  store ptr %0, ptr %2, align 8, !tbaa !3
  call void @llvm.lifetime.start.p0(i64 8, ptr %3) #9
  %4 = load ptr, ptr %2, align 8, !tbaa !3
  store ptr %4, ptr %3, align 8, !tbaa !3
  %5 = load ptr, ptr %3, align 8, !tbaa !3
  %6 = getelementptr inbounds nuw %struct.py_hashentry_t, ptr %5, i32 0, i32 4
  %7 = load i32, ptr %6, align 4, !tbaa !95
  %8 = add i32 %7, -1
  store i32 %8, ptr %6, align 4, !tbaa !95
  %9 = icmp eq i32 %8, 0
  br i1 %9, label %10, label %34

10:                                               ; preds = %1
  %11 = load ptr, ptr %3, align 8, !tbaa !3
  %12 = getelementptr inbounds nuw %struct.py_hashentry_t, ptr %11, i32 0, i32 5
  %13 = load ptr, ptr %12, align 8, !tbaa !72
  %14 = icmp ne ptr %13, null
  br i1 %14, label %15, label %21

15:                                               ; preds = %10
  %16 = load ptr, ptr %3, align 8, !tbaa !3
  %17 = getelementptr inbounds nuw %struct.py_hashentry_t, ptr %16, i32 0, i32 5
  %18 = load ptr, ptr %17, align 8, !tbaa !72
  call void @EVP_MD_free(ptr noundef %18)
  %19 = load ptr, ptr %3, align 8, !tbaa !3
  %20 = getelementptr inbounds nuw %struct.py_hashentry_t, ptr %19, i32 0, i32 5
  store ptr null, ptr %20, align 8, !tbaa !72
  br label %21

21:                                               ; preds = %15, %10
  %22 = load ptr, ptr %3, align 8, !tbaa !3
  %23 = getelementptr inbounds nuw %struct.py_hashentry_t, ptr %22, i32 0, i32 6
  %24 = load ptr, ptr %23, align 8, !tbaa !74
  %25 = icmp ne ptr %24, null
  br i1 %25, label %26, label %32

26:                                               ; preds = %21
  %27 = load ptr, ptr %3, align 8, !tbaa !3
  %28 = getelementptr inbounds nuw %struct.py_hashentry_t, ptr %27, i32 0, i32 6
  %29 = load ptr, ptr %28, align 8, !tbaa !74
  call void @EVP_MD_free(ptr noundef %29)
  %30 = load ptr, ptr %3, align 8, !tbaa !3
  %31 = getelementptr inbounds nuw %struct.py_hashentry_t, ptr %30, i32 0, i32 6
  store ptr null, ptr %31, align 8, !tbaa !74
  br label %32

32:                                               ; preds = %26, %21
  %33 = load ptr, ptr %2, align 8, !tbaa !3
  call void @PyMem_Free(ptr noundef %33)
  br label %34

34:                                               ; preds = %32, %1
  call void @llvm.lifetime.end.p0(i64 8, ptr %3) #9
  ret void
}