; Function Attrs: nounwind uwtable
define internal void @py_hashentry_t_destroy_value(ptr noundef %0) #0 {
  %2 = getelementptr inbounds nuw i8, ptr %0, i64 28
  %3 = load i32, ptr %2, align 4, !tbaa !68
  %4 = add i32 %3, -1
  store i32 %4, ptr %2, align 4, !tbaa !68
  %5 = icmp eq i32 %4, 0
  br i1 %5, label %6, label %15

6:                                                ; preds = %1
  %7 = getelementptr inbounds nuw i8, ptr %0, i64 32
  %8 = load ptr, ptr %7, align 8, !tbaa !66
  %.not = icmp eq ptr %8, null
  br i1 %.not, label %10, label %9

9:                                                ; preds = %6
  tail call void @EVP_MD_free(ptr noundef nonnull %8) #9
  store ptr null, ptr %7, align 8, !tbaa !66
  br label %10

10:                                               ; preds = %9, %6
  %11 = getelementptr inbounds nuw i8, ptr %0, i64 40
  %12 = load ptr, ptr %11, align 8, !tbaa !67
  %.not10 = icmp eq ptr %12, null
  br i1 %.not10, label %14, label %13

13:                                               ; preds = %10
  tail call void @EVP_MD_free(ptr noundef nonnull %12) #9
  store ptr null, ptr %11, align 8, !tbaa !67
  br label %14

14:                                               ; preds = %13, %10
  tail call void @PyMem_Free(ptr noundef nonnull %0) #9
  br label %15

15:                                               ; preds = %14, %1
  ret void
}